target datalayout = "e-m:e-p270:32:32-p271:32:32-p272:64:64-i64:64-i128:128-f80:128-n8:16:32:64-S128"
target triple = "x86_64-pc-linux-gnu"

@env_str = internal global ptr null, align 8
@.str.8 = private unnamed_addr constant [2 x i8] c"=\00", align 1
@envsize = internal global i32 1024, align 4
@.str.10 = private unnamed_addr constant [2 x i8] c";\00", align 1

; Function Attrs: nounwind uwtable
define internal i32 @add_to_env_str(ptr noundef %0, ptr noundef %1) #0 {
  %3 = alloca i32, align 4
  %4 = alloca ptr, align 8
  %5 = alloca ptr, align 8
  %6 = alloca i32, align 4
  %7 = alloca i32, align 4
  %8 = alloca i32, align 4
  %9 = alloca i32, align 4
  %10 = alloca ptr, align 8
  %11 = alloca i32, align 4
  store ptr %0, ptr %4, align 8, !tbaa !3
  store ptr %1, ptr %5, align 8, !tbaa !3
  call void @llvm.lifetime.start.p0(i64 4, ptr %6) #10
  call void @llvm.lifetime.start.p0(i64 4, ptr %7) #10
  store i32 0, ptr %7, align 4, !tbaa !22
  call void @llvm.lifetime.start.p0(i64 4, ptr %8) #10
  store i32 0, ptr %8, align 4, !tbaa !22
  call void @llvm.lifetime.start.p0(i64 4, ptr %9) #10
  call void @llvm.lifetime.start.p0(i64 8, ptr %10) #10
  %12 = load ptr, ptr %4, align 8, !tbaa !3
  %13 = icmp eq ptr null, %12
  br i1 %13, label %14, label %15

14:                                               ; preds = %2
  store i32 -27, ptr %3, align 4
  store i32 1, ptr %11, align 4
  br label %93

15:                                               ; preds = %2
  %16 = load ptr, ptr %4, align 8, !tbaa !3
  %17 = call i64 @strlen(ptr noundef %16) #11
  %18 = trunc i64 %17 to i32
  store i32 %18, ptr %7, align 4, !tbaa !22
  %19 = load ptr, ptr %5, align 8, !tbaa !3
  %20 = icmp ne ptr null, %19
  br i1 %20, label %21, label %27

21:                                               ; preds = %15
  %22 = load ptr, ptr %5, align 8, !tbaa !3
  %23 = call i64 @strlen(ptr noundef %22) #11
  %24 = trunc i64 %23 to i32
  store i32 %24, ptr %8, align 4, !tbaa !22
  %25 = load i32, ptr %8, align 4, !tbaa !22
  %26 = add nsw i32 %25, 1
  store i32 %26, ptr %8, align 4, !tbaa !22
  br label %27

27:                                               ; preds = %21, %15
  store i32 0, ptr %6, align 4, !tbaa !22
  %28 = load ptr, ptr @env_str, align 8, !tbaa !3
  %29 = icmp ne ptr null, %28
  br i1 %29, label %30, label %36

30:                                               ; preds = %27
  %31 = load ptr, ptr @env_str, align 8, !tbaa !3
  %32 = call i64 @strlen(ptr noundef %31) #11
  %33 = trunc i64 %32 to i32
  store i32 %33, ptr %6, align 4, !tbaa !22
  %34 = load i32, ptr %6, align 4, !tbaa !22
  %35 = add nsw i32 %34, 1
  store i32 %35, ptr %6, align 4, !tbaa !22
  br label %36

36:                                               ; preds = %30, %27
  %37 = load i32, ptr %7, align 4, !tbaa !22
  %38 = load i32, ptr %8, align 4, !tbaa !22
  %39 = add nsw i32 %37, %38
  %40 = add nsw i32 %39, 1
  %41 = load i32, ptr %6, align 4, !tbaa !22
  %42 = add nsw i32 %41, %40
  store i32 %42, ptr %6, align 4, !tbaa !22
  %43 = load i32, ptr @envsize, align 4, !tbaa !22
  store i32 %43, ptr %9, align 4, !tbaa !22
  br label %44

44:                                               ; preds = %48, %36
  %45 = load i32, ptr %9, align 4, !tbaa !22
  %46 = load i32, ptr %6, align 4, !tbaa !22
  %47 = icmp sle i32 %45, %46
  br i1 %47, label %48, label %51

48:                                               ; preds = %44
  %49 = load i32, ptr %9, align 4, !tbaa !22
  %50 = mul nsw i32 %49, 2
  store i32 %50, ptr %9, align 4, !tbaa !22
  br label %44, !llvm.loop !56

51:                                               ; preds = %44
  %52 = load ptr, ptr @env_str, align 8, !tbaa !3
  %53 = icmp ne ptr null, %52
  br i1 %53, label %54, label %71

54:                                               ; preds = %51
  %55 = load i32, ptr %9, align 4, !tbaa !22
  %56 = load i32, ptr @envsize, align 4, !tbaa !22
  %57 = icmp sgt i32 %55, %56
  br i1 %57, label %58, label %68

58:                                               ; preds = %54
  %59 = load ptr, ptr @env_str, align 8, !tbaa !3
  %60 = load i32, ptr %9, align 4, !tbaa !22
  %61 = sext i32 %60 to i64
  %62 = call ptr @realloc(ptr noundef %59, i64 noundef %61) #12
  store ptr %62, ptr %10, align 8, !tbaa !19
  %63 = load ptr, ptr %10, align 8, !tbaa !19
  %64 = icmp eq ptr null, %63
  br i1 %64, label %65, label %66

65:                                               ; preds = %58
  store i32 -29, ptr %3, align 4
  store i32 1, ptr %11, align 4
  br label %93

66:                                               ; preds = %58
  %67 = load ptr, ptr %10, align 8, !tbaa !19
  store ptr %67, ptr @env_str, align 8, !tbaa !3
  br label %68

68:                                               ; preds = %66, %54
  %69 = load ptr, ptr @env_str, align 8, !tbaa !3
  %70 = call ptr @strcat(ptr noundef %69, ptr noundef @.str.10) #10
  br label %79

71:                                               ; preds = %51
  %72 = load i32, ptr %9, align 4, !tbaa !22
  %73 = sext i32 %72 to i64
  %74 = call noalias ptr @calloc(i64 noundef 1, i64 noundef %73) #14
  store ptr %74, ptr @env_str, align 8, !tbaa !3
  %75 = load ptr, ptr @env_str, align 8, !tbaa !3
  %76 = icmp eq ptr null, %75
  br i1 %76, label %77, label %78

77:                                               ; preds = %71
  store i32 -29, ptr %3, align 4
  store i32 1, ptr %11, align 4
  br label %93

78:                                               ; preds = %71
  br label %79

79:                                               ; preds = %78, %68
  %80 = load i32, ptr %9, align 4, !tbaa !22
  store i32 %80, ptr @envsize, align 4, !tbaa !22
  %81 = load ptr, ptr @env_str, align 8, !tbaa !3
  %82 = load ptr, ptr %4, align 8, !tbaa !3
  %83 = call ptr @strcat(ptr noundef %81, ptr noundef %82) #10
  %84 = load ptr, ptr %5, align 8, !tbaa !3
  %85 = icmp ne ptr null, %84
  br i1 %85, label %86, label %92

86:                                               ; preds = %79
  %87 = load ptr, ptr @env_str, align 8, !tbaa !3
  %88 = call ptr @strcat(ptr noundef %87, ptr noundef @.str.8) #10
  %89 = load ptr, ptr @env_str, align 8, !tbaa !3
  %90 = load ptr, ptr %5, align 8, !tbaa !3
  %91 = call ptr @strcat(ptr noundef %89, ptr noundef %90) #10
  br label %92

92:                                               ; preds = %86, %79
  store i32 0, ptr %3, align 4
  store i32 1, ptr %11, align 4
  br label %93

93:                                               ; preds = %92, %77, %65, %14
  call void @llvm.lifetime.end.p0(i64 8, ptr %10) #10
  call void @llvm.lifetime.end.p0(i64 4, ptr %9) #10
  call void @llvm.lifetime.end.p0(i64 4, ptr %8) #10
  call void @llvm.lifetime.end.p0(i64 4, ptr %7) #10
  call void @llvm.lifetime.end.p0(i64 4, ptr %6) #10
  %94 = load i32, ptr %3, align 4
  ret i32 %94
}