; Function Attrs: nounwind uwtable
define internal fastcc void @add_to_env_str(ptr noundef readonly captures(address_is_null) %0, ptr noundef readonly captures(address_is_null) %1) unnamed_addr #0 {
  %3 = icmp eq ptr %0, null
  br i1 %3, label %43, label %4

4:                                                ; preds = %2
  %5 = tail call i64 @strlen(ptr noundef nonnull dereferenceable(1) %0) #15
  %6 = trunc i64 %5 to i32
  %.not = icmp eq ptr %1, null
  br i1 %.not, label %11, label %7

7:                                                ; preds = %4
  %8 = tail call i64 @strlen(ptr noundef nonnull dereferenceable(1) %1) #15
  %9 = trunc i64 %8 to i32
  %10 = add nsw i32 %9, 1
  br label %11

11:                                               ; preds = %7, %4
  %.022 = phi i32 [ %10, %7 ], [ 0, %4 ]
  %12 = load ptr, ptr @env_str, align 8, !tbaa !3
  %.not29 = icmp eq ptr %12, null
  br i1 %.not29, label %17, label %13

13:                                               ; preds = %11
  %14 = tail call i64 @strlen(ptr noundef nonnull dereferenceable(1) %12) #15
  %15 = trunc i64 %14 to i32
  %16 = add nsw i32 %15, 1
  br label %17

17:                                               ; preds = %13, %11
  %.023 = phi i32 [ %16, %13 ], [ 0, %11 ]
  %18 = add i32 %6, 1
  %19 = add i32 %18, %.022
  %20 = add nsw i32 %19, %.023
  %21 = load i32, ptr @envsize, align 4, !tbaa !20
  br label %22

22:                                               ; preds = %22, %17
  %.021 = phi i32 [ %21, %17 ], [ %23, %22 ]
  %.not30 = icmp sgt i32 %.021, %20
  %23 = shl nsw i32 %.021, 1
  br i1 %.not30, label %24, label %22, !llvm.loop !41

24:                                               ; preds = %22
  br i1 %.not29, label %34, label %25

25:                                               ; preds = %24
  %26 = icmp sgt i32 %.021, %21
  br i1 %26, label %27, label %32

27:                                               ; preds = %25
  %28 = sext i32 %.021 to i64
  %29 = tail call ptr @realloc(ptr noundef nonnull %12, i64 noundef %28) #16
  %30 = icmp eq ptr %29, null
  br i1 %30, label %43, label %31

31:                                               ; preds = %27
  store ptr %29, ptr @env_str, align 8, !tbaa !3
  br label %32

32:                                               ; preds = %31, %25
  %33 = phi ptr [ %29, %31 ], [ %12, %25 ]
  %strlen = tail call i64 @strlen(ptr nonnull dereferenceable(1) %33)
  %endptr = getelementptr inbounds i8, ptr %33, i64 %strlen
  store i16 59, ptr %endptr, align 1
  br label %38

34:                                               ; preds = %24
  %35 = sext i32 %.021 to i64
  %36 = tail call noalias ptr @calloc(i64 noundef 1, i64 noundef %35) #18
  store ptr %36, ptr @env_str, align 8, !tbaa !3
  %37 = icmp eq ptr %36, null
  br i1 %37, label %43, label %38

38:                                               ; preds = %34, %32
  %39 = phi ptr [ %36, %34 ], [ %33, %32 ]
  store i32 %.021, ptr @envsize, align 4, !tbaa !20
  %40 = tail call ptr @strcat(ptr noundef nonnull dereferenceable(1) %39, ptr noundef nonnull dereferenceable(1) %0) #14
  br i1 %.not, label %43, label %41

41:                                               ; preds = %38
  %strlen32 = tail call i64 @strlen(ptr nonnull dereferenceable(1) %39)
  %endptr33 = getelementptr inbounds i8, ptr %39, i64 %strlen32
  store i16 61, ptr %endptr33, align 1
  %42 = tail call ptr @strcat(ptr noundef nonnull dereferenceable(1) %39, ptr noundef nonnull dereferenceable(1) %1) #14
  br label %43

43:                                               ; preds = %38, %41, %34, %27, %2
  ret void
}